; Function Attrs: mustprogress nounwind uwtable
define hidden noundef i64 @_ZNK22G1CardSetMemoryManager15unused_mem_sizeEv(ptr nocapture noundef nonnull readonly align 8 dereferenceable(24) %0) local_unnamed_addr #0 align 2 {
  %2 = getelementptr inbounds i8, ptr %0, i64 16
  br label %3

3:                                                ; preds = %1, %3
  %indvars.iv = phi i64 [ 0, %1 ], [ %indvars.iv.next, %3 ]
  %.056 = phi i64 [ 0, %1 ], [ %18, %3 ]
  %4 = load ptr, ptr %2, align 8
  %5 = getelementptr inbounds %class.G1CardSetAllocator, ptr %4, i64 %indvars.iv
  %6 = getelementptr inbounds i8, ptr %5, i64 64
  %7 = load volatile i32, ptr %6, align 4
  %8 = getelementptr inbounds i8, ptr %5, i64 68
  %9 = load volatile i32, ptr %8, align 4
  %10 = sub i32 %7, %9
  %11 = getelementptr inbounds i8, ptr %5, i64 72
  %12 = tail call noundef i64 @_ZNK17FreeListAllocator10free_countEv(ptr noundef nonnull align 8 dereferenceable(568) %11) #4
  %13 = trunc i64 %12 to i32
  %14 = add i32 %10, %13
  %15 = tail call noundef i32 @_ZNK16G1MonotonicArena9slot_sizeEv(ptr noundef nonnull align 8 dereferenceable(72) %5) #4
  %16 = mul i32 %14, %15
  %17 = zext i32 %16 to i64
  %18 = add i64 %.056, %17
  %indvars.iv.next = add nuw nsw i64 %indvars.iv, 1
  %exitcond.not = icmp eq i64 %indvars.iv.next, 4
  br i1 %exitcond.not, label %19, label %3, !llvm.loop !11

19:                                               ; preds = %3
  ret i64 %18
}